; Function Attrs: mustprogress nofree nounwind willreturn memory(inaccessiblemem: readwrite) uwtable
define internal fastcc noalias noundef ptr @_ZL17stbi__malloc_mad3iiii(i32 noundef %0, i32 noundef %1, i32 noundef %2, i32 noundef range(i32 0, 16) %3) unnamed_addr #16 {
  %5 = or i32 %1, %0
  %or.cond.not.i.i = icmp sgt i32 %5, -1
  br i1 %or.cond.not.i.i, label %6, label %_ZL21stbi__mad3sizes_validiiii.exit.thread

6:                                                ; preds = %4
  %7 = icmp eq i32 %1, 0
  br i1 %7, label %_ZL21stbi__mul2sizes_validii.exit.thread15.i, label %_ZL21stbi__mul2sizes_validii.exit.i

_ZL21stbi__mul2sizes_validii.exit.i:              ; preds = %6
  %8 = udiv i32 2147483647, %1
  %.not23.i = icmp sgt i32 %0, %8
  br i1 %.not23.i, label %_ZL21stbi__mad3sizes_validiiii.exit.thread, label %_ZL21stbi__mul2sizes_validii.exit.thread15.i

_ZL21stbi__mul2sizes_validii.exit.thread15.i:     ; preds = %_ZL21stbi__mul2sizes_validii.exit.i, %6
  %9 = mul nsw i32 %1, %0
  %10 = or i32 %2, %9
  %or.cond.not.i10.i = icmp sgt i32 %10, -1
  br i1 %or.cond.not.i10.i, label %11, label %_ZL21stbi__mad3sizes_validiiii.exit.thread

11:                                               ; preds = %_ZL21stbi__mul2sizes_validii.exit.thread15.i
  %12 = icmp eq i32 %2, 0
  br i1 %12, label %_ZL21stbi__mad3sizes_validiiii.exit, label %_ZL21stbi__mul2sizes_validii.exit12.i

_ZL21stbi__mul2sizes_validii.exit12.i:            ; preds = %11
  %13 = udiv i32 2147483647, %2
  %.not.i = icmp sgt i32 %9, %13
  br i1 %.not.i, label %_ZL21stbi__mad3sizes_validiiii.exit.thread, label %_ZL21stbi__mad3sizes_validiiii.exit

_ZL21stbi__mad3sizes_validiiii.exit:              ; preds = %11, %_ZL21stbi__mul2sizes_validii.exit12.i
  %14 = mul nsw i32 %9, %2
  %15 = xor i32 %3, 2147483647
  %.not9 = icmp sgt i32 %14, %15
  br i1 %.not9, label %_ZL21stbi__mad3sizes_validiiii.exit.thread, label %16

16:                                               ; preds = %_ZL21stbi__mad3sizes_validiiii.exit
  %17 = add nsw i32 %14, %3
  %18 = sext i32 %17 to i64
  %19 = tail call noalias noundef ptr @malloc(i64 noundef range(i64 -2147483648, 4294967296) %18) #36
  br label %_ZL21stbi__mad3sizes_validiiii.exit.thread

_ZL21stbi__mad3sizes_validiiii.exit.thread:       ; preds = %_ZL21stbi__mul2sizes_validii.exit.thread15.i, %4, %_ZL21stbi__mul2sizes_validii.exit.i, %_ZL21stbi__mul2sizes_validii.exit12.i, %_ZL21stbi__mad3sizes_validiiii.exit, %16
  %.0 = phi ptr [ %19, %16 ], [ null, %_ZL21stbi__mad3sizes_validiiii.exit ], [ null, %_ZL21stbi__mul2sizes_validii.exit12.i ], [ null, %_ZL21stbi__mul2sizes_validii.exit.i ], [ null, %4 ], [ null, %_ZL21stbi__mul2sizes_validii.exit.thread15.i ]
  ret ptr %.0
}